target datalayout = "e-m:e-p270:32:32-p271:32:32-p272:64:64-i64:64-i128:128-f80:128-n8:16:32:64-S128"
target triple = "x86_64-pc-linux-gnu"

%struct.PJconsts = type { ptr, ptr, ptr, ptr, ptr, ptr, ptr, ptr, ptr, ptr, ptr, ptr, i32, ptr, ptr, ptr, ptr, ptr, ptr, ptr, ptr, double, double, double, double, double, double, double, double, double, double, double, double, double, double, double, double, double, double, double, double, double, double, i32, i32, i32, i32, i32, i32, i32, i32, i32, i32, i32, ptr, ptr, ptr, ptr, ptr, ptr, double, double, double, double, double, double, double, double, double, double, double, i32, [7 x double], i32, ptr, ptr, double, double, i32, [4 x i8], %"class.std::shared_ptr", i8, double, i8, %"class.std::__cxx11::basic_string", %"class.std::__cxx11::basic_string", %"class.std::__cxx11::basic_string", i8, %"class.std::vector", i32, %"class.std::vector.3", i32, i8, i8, i8, ptr }
%"class.std::shared_ptr" = type { %"class.std::__shared_ptr" }
%"class.std::__shared_ptr" = type { ptr, %"class.std::__shared_count" }
%"class.std::__shared_count" = type { ptr }
%"class.std::__cxx11::basic_string" = type { %"struct.std::__cxx11::basic_string<char>::_Alloc_hider", i64, %union.anon }
%"struct.std::__cxx11::basic_string<char>::_Alloc_hider" = type { ptr }
%union.anon = type { i64, [8 x i8] }
%"class.std::vector" = type { %"struct.std::_Vector_base" }
%"struct.std::_Vector_base" = type { %"struct.std::_Vector_base<osgeo::proj::operation::GridDescription, std::allocator<osgeo::proj::operation::GridDescription>>::_Vector_impl" }
%"struct.std::_Vector_base<osgeo::proj::operation::GridDescription, std::allocator<osgeo::proj::operation::GridDescription>>::_Vector_impl" = type { %"struct.std::_Vector_base<osgeo::proj::operation::GridDescription, std::allocator<osgeo::proj::operation::GridDescription>>::_Vector_impl_data" }
%"struct.std::_Vector_base<osgeo::proj::operation::GridDescription, std::allocator<osgeo::proj::operation::GridDescription>>::_Vector_impl_data" = type { ptr, ptr, ptr }
%"class.std::vector.3" = type { %"struct.std::_Vector_base.4" }
%"struct.std::_Vector_base.4" = type { %"struct.std::_Vector_base<PJCoordOperation, std::allocator<PJCoordOperation>>::_Vector_impl" }
%"struct.std::_Vector_base<PJCoordOperation, std::allocator<PJCoordOperation>>::_Vector_impl" = type { %"struct.std::_Vector_base<PJCoordOperation, std::allocator<PJCoordOperation>>::_Vector_impl_data" }
%"struct.std::_Vector_base<PJCoordOperation, std::allocator<PJCoordOperation>>::_Vector_impl_data" = type { ptr, ptr, ptr }
%"struct.(anonymous namespace)::pj_ob_tran_data" = type { ptr, double, double, double }

; Function Attrs: mustprogress uwtable
define internal noundef ptr @_ZL10destructorP8PJconstsi(ptr noundef %0, i32 noundef %1) #0 {
  %3 = alloca ptr, align 8
  %4 = alloca ptr, align 8
  %5 = alloca i32, align 4
  store ptr %0, ptr %4, align 8, !tbaa !3
  store i32 %1, ptr %5, align 4, !tbaa !49
  %6 = load ptr, ptr %4, align 8, !tbaa !3
  %7 = icmp eq ptr null, %6
  br i1 %7, label %8, label %9

8:                                                ; preds = %2
  store ptr null, ptr %3, align 8
  br label %44

9:                                                ; preds = %2
  %10 = load ptr, ptr %4, align 8, !tbaa !3
  %11 = getelementptr inbounds nuw %struct.PJconsts, ptr %10, i32 0, i32 11
  %12 = load ptr, ptr %11, align 8, !tbaa !43
  %13 = icmp eq ptr null, %12
  br i1 %13, label %14, label %18

14:                                               ; preds = %9
  %15 = load ptr, ptr %4, align 8, !tbaa !3
  %16 = load i32, ptr %5, align 4, !tbaa !49
  %17 = call noundef ptr @_Z21pj_default_destructorP8PJconstsi(ptr noundef %15, i32 noundef %16)
  store ptr %17, ptr %3, align 8
  br label %44

18:                                               ; preds = %9
  %19 = load ptr, ptr %4, align 8, !tbaa !3
  %20 = getelementptr inbounds nuw %struct.PJconsts, ptr %19, i32 0, i32 11
  %21 = load ptr, ptr %20, align 8, !tbaa !43
  %22 = getelementptr inbounds nuw %"struct.(anonymous namespace)::pj_ob_tran_data", ptr %21, i32 0, i32 0
  %23 = load ptr, ptr %22, align 8, !tbaa !60
  %24 = icmp ne ptr %23, null
  br i1 %24, label %25, label %40

25:                                               ; preds = %18
  %26 = load ptr, ptr %4, align 8, !tbaa !3
  %27 = getelementptr inbounds nuw %struct.PJconsts, ptr %26, i32 0, i32 11
  %28 = load ptr, ptr %27, align 8, !tbaa !43
  %29 = getelementptr inbounds nuw %"struct.(anonymous namespace)::pj_ob_tran_data", ptr %28, i32 0, i32 0
  %30 = load ptr, ptr %29, align 8, !tbaa !60
  %31 = getelementptr inbounds nuw %struct.PJconsts, ptr %30, i32 0, i32 19
  %32 = load ptr, ptr %31, align 8, !tbaa !44
  %33 = load ptr, ptr %4, align 8, !tbaa !3
  %34 = getelementptr inbounds nuw %struct.PJconsts, ptr %33, i32 0, i32 11
  %35 = load ptr, ptr %34, align 8, !tbaa !43
  %36 = getelementptr inbounds nuw %"struct.(anonymous namespace)::pj_ob_tran_data", ptr %35, i32 0, i32 0
  %37 = load ptr, ptr %36, align 8, !tbaa !60
  %38 = load i32, ptr %5, align 4, !tbaa !49
  %39 = call noundef ptr %32(ptr noundef %37, i32 noundef %38)
  br label %40

40:                                               ; preds = %25, %18
  %41 = load ptr, ptr %4, align 8, !tbaa !3
  %42 = load i32, ptr %5, align 4, !tbaa !49
  %43 = call noundef ptr @_Z21pj_default_destructorP8PJconstsi(ptr noundef %41, i32 noundef %42)
  store ptr %43, ptr %3, align 8
  br label %44

44:                                               ; preds = %40, %14, %8
  %45 = load ptr, ptr %3, align 8
  ret ptr %45
}