; Function Attrs: mustprogress uwtable
define internal noundef ptr @_ZL10destructorP8PJconstsi(ptr noundef %0, i32 noundef %1) #0 {
  %3 = icmp eq ptr %0, null
  br i1 %3, label %15, label %4

4:                                                ; preds = %2
  %5 = getelementptr inbounds nuw i8, ptr %0, i64 88
  %6 = load ptr, ptr %5, align 8, !tbaa !40
  %7 = icmp eq ptr %6, null
  br i1 %7, label %.sink.split, label %8

8:                                                ; preds = %4
  %9 = load ptr, ptr %6, align 8, !tbaa !41
  %.not = icmp eq ptr %9, null
  br i1 %.not, label %.sink.split, label %10

10:                                               ; preds = %8
  %11 = getelementptr inbounds nuw i8, ptr %9, i64 152
  %12 = load ptr, ptr %11, align 8, !tbaa !43
  %13 = tail call noundef ptr %12(ptr noundef nonnull %9, i32 noundef %1)
  br label %.sink.split

.sink.split:                                      ; preds = %8, %10, %4
  %14 = tail call noundef ptr @_Z21pj_default_destructorP8PJconstsi(ptr noundef nonnull %0, i32 noundef %1)
  br label %15

15:                                               ; preds = %.sink.split, %2
  %.0 = phi ptr [ null, %2 ], [ %14, %.sink.split ]
  ret ptr %.0
}